; Function Attrs: mustprogress uwtable
define noundef zeroext i1 @_ZN11OpenImageIO6v3_1_021equivalent_colorspaceENS0_17basic_string_viewIcSt11char_traitsIcEEES4_(ptr noundef readonly captures(none) %0, ptr noundef readonly captures(none) %1) local_unnamed_addr #5 personality ptr @__gxx_personality_v0 {
  %3 = alloca %"class.OpenImageIO::v3_1_0::basic_string_view", align 8
  %4 = alloca %"class.OpenImageIO::v3_1_0::basic_string_view", align 8
  %5 = alloca %"class.OpenImageIO::v3_1_0::basic_string_view", align 8
  call void @llvm.lifetime.start.p0(i64 16, ptr nonnull %3)
  %6 = load atomic i8, ptr @_ZGVZN11OpenImageIO6v3_1_011ColorConfig19default_colorconfigEvE6config acquire, align 8
  %7 = icmp eq i8 %6, 0
  br i1 %7, label %8, label %_ZN11OpenImageIO6v3_1_011ColorConfig19default_colorconfigEv.exit, !prof !3

8:                                                ; preds = %2
  %9 = tail call i32 @__cxa_guard_acquire(ptr nonnull @_ZGVZN11OpenImageIO6v3_1_011ColorConfig19default_colorconfigEvE6config) #34
  %.not.i = icmp eq i32 %9, 0
  br i1 %.not.i, label %_ZN11OpenImageIO6v3_1_011ColorConfig19default_colorconfigEv.exit, label %10

10:                                               ; preds = %8
  store ptr @.str.8, ptr %3, align 8, !tbaa !4
  %11 = getelementptr inbounds nuw i8, ptr %3, i64 8
  store i64 0, ptr %11, align 8, !tbaa !11
  invoke void @_ZN11OpenImageIO6v3_1_011ColorConfigC1ENS0_17basic_string_viewIcSt11char_traitsIcEEE(ptr noundef nonnull align 8 dereferenceable(8) @_ZZN11OpenImageIO6v3_1_011ColorConfig19default_colorconfigEvE6config, ptr noundef nonnull %3)
          to label %12 unwind label %14

12:                                               ; preds = %10
  %13 = call i32 @__cxa_atexit(ptr nonnull @_ZN11OpenImageIO6v3_1_011ColorConfigD1Ev, ptr nonnull @_ZZN11OpenImageIO6v3_1_011ColorConfig19default_colorconfigEvE6config, ptr nonnull @__dso_handle) #34
  call void @__cxa_guard_release(ptr nonnull @_ZGVZN11OpenImageIO6v3_1_011ColorConfig19default_colorconfigEvE6config) #34
  br label %_ZN11OpenImageIO6v3_1_011ColorConfig19default_colorconfigEv.exit

14:                                               ; preds = %10
  %15 = landingpad { ptr, i32 }
          cleanup
  call void @__cxa_guard_abort(ptr nonnull @_ZGVZN11OpenImageIO6v3_1_011ColorConfig19default_colorconfigEvE6config) #34
  resume { ptr, i32 } %15

_ZN11OpenImageIO6v3_1_011ColorConfig19default_colorconfigEv.exit: ; preds = %2, %8, %12
  call void @llvm.lifetime.end.p0(i64 16, ptr nonnull %3)
  %16 = load ptr, ptr %0, align 8, !tbaa !4
  store ptr %16, ptr %4, align 8, !tbaa !4
  %17 = getelementptr inbounds nuw i8, ptr %4, i64 8
  %18 = getelementptr inbounds nuw i8, ptr %0, i64 8
  %19 = load i64, ptr %18, align 8, !tbaa !11
  store i64 %19, ptr %17, align 8, !tbaa !11
  %20 = load ptr, ptr %1, align 8, !tbaa !4
  store ptr %20, ptr %5, align 8, !tbaa !4
  %21 = getelementptr inbounds nuw i8, ptr %5, i64 8
  %22 = getelementptr inbounds nuw i8, ptr %1, i64 8
  %23 = load i64, ptr %22, align 8, !tbaa !11
  store i64 %23, ptr %21, align 8, !tbaa !11
  %24 = call noundef zeroext i1 @_ZNK11OpenImageIO6v3_1_011ColorConfig10equivalentENS0_17basic_string_viewIcSt11char_traitsIcEEES5_(ptr noundef nonnull align 8 dereferenceable(8) @_ZZN11OpenImageIO6v3_1_011ColorConfig19default_colorconfigEvE6config, ptr noundef nonnull %4, ptr noundef nonnull %5)
  ret i1 %24
}